target datalayout = "e-m:e-p270:32:32-p271:32:32-p272:64:64-i64:64-i128:128-f80:128-n8:16:32:64-S128"
target triple = "x86_64-pc-linux-gnu"

%struct.H5CX_node_t = type { %struct.H5CX_t, ptr }
%struct.H5CX_t = type { i64, ptr, i64, ptr, i64, ptr, i64, ptr, i64, ptr, i64, ptr, i64, i32, i64, i8, ptr, i8, ptr, i8, i32, i8, [3 x double], i8, i64, i8, i32, i8, %struct.H5Z_cb_t, i8, ptr, i8, %struct.H5T_vlen_alloc_info_t, i8, %struct.H5T_conv_cb_t, i8, i32, i8, i8, i8, i32, i8, i8, i32, i8, i8, i32, i8, i32, i8, i64, i8, i8, i8, i8, i8, ptr, i8, ptr, i8, i32, i8, i32, i8, %struct.H5VL_connector_prop_t, i8, ptr, i8 }
%struct.H5Z_cb_t = type { ptr, ptr }
%struct.H5T_vlen_alloc_info_t = type { ptr, ptr, ptr, ptr }
%struct.H5T_conv_cb_t = type { ptr, ptr }
%struct.H5VL_connector_prop_t = type { ptr, ptr }

@H5P_CLS_OBJECT_CREATE_ID_g = external global i64, align 8
@H5_libinit_g = external global i8, align 1
@H5_libterm_g = external global i8, align 1
@.str.1 = private unnamed_addr constant [101 x i8] c"generated/home/dtcxzyw/WorkSpace/Projects/compilers/llvm-opt-benchmark/bench/hdf5/hdf5/src/H5Pocpl.c\00", align 1
@H5E_FUNC_g = external global i64, align 8
@H5E_CANTINIT_g = external global i64, align 8
@.str.2 = private unnamed_addr constant [30 x i8] c"library initialization failed\00", align 1
@H5P_init_g = external global i8, align 1
@.str.3 = private unnamed_addr constant [32 x i8] c"interface initialization failed\00", align 1
@H5E_CANTSET_g = external global i64, align 8
@.str.4 = private unnamed_addr constant [22 x i8] c"can't set API context\00", align 1
@H5E_ID_g = external global i64, align 8
@H5E_BADID_g = external global i64, align 8
@.str.8 = private unnamed_addr constant [25 x i8] c"can't find object for ID\00", align 1
@H5E_PLIST_g = external global i64, align 8
@H5E_CANTGET_g = external global i64, align 8
@.str.16 = private unnamed_addr constant [20 x i8] c"object header flags\00", align 1
@.str.17 = private unnamed_addr constant [30 x i8] c"can't get object header flags\00", align 1
@.str.18 = private unnamed_addr constant [30 x i8] c"can't set object header flags\00", align 1
@__func__.H5Pset_obj_track_times = private unnamed_addr constant [23 x i8] c"H5Pset_obj_track_times\00", align 1

; Function Attrs: nounwind uwtable
define i32 @H5Pset_obj_track_times(i64 noundef %0, i1 noundef zeroext %1) #0 {
  %3 = alloca i64, align 8
  %4 = alloca i8, align 1
  %5 = alloca ptr, align 8
  %6 = alloca i8, align 1
  %7 = alloca i32, align 4
  %8 = alloca %struct.H5CX_node_t, align 8
  %9 = alloca i8, align 1
  %10 = alloca i8, align 1
  store i64 %0, ptr %3, align 8, !tbaa !14
  %11 = zext i1 %1 to i8
  store i8 %11, ptr %4, align 1, !tbaa !10
  call void @llvm.lifetime.start.p0(i64 8, ptr %5) #10
  call void @llvm.lifetime.start.p0(i64 1, ptr %6) #10
  call void @llvm.lifetime.start.p0(i64 4, ptr %7) #10
  store i32 0, ptr %7, align 4, !tbaa !8
  call void @llvm.lifetime.start.p0(i64 480, ptr %8) #10
  call void @llvm.memset.p0.i64(ptr align 8 %8, i8 0, i64 480, i1 false)
  call void @llvm.lifetime.start.p0(i64 1, ptr %9) #10
  store i8 0, ptr %9, align 1, !tbaa !10
  call void @llvm.lifetime.start.p0(i64 1, ptr %10) #10
  store i8 0, ptr %10, align 1, !tbaa !10
  br label %12

12:                                               ; preds = %2
  %13 = load i8, ptr @H5_libinit_g, align 1, !tbaa !10, !range !12, !noundef !13
  %14 = trunc i8 %13 to i1
  br i1 %14, label %19, label %15

15:                                               ; preds = %12
  %16 = load i8, ptr @H5_libterm_g, align 1, !tbaa !10, !range !12, !noundef !13
  %17 = trunc i8 %16 to i1
  %18 = xor i1 %17, true
  br label %19

19:                                               ; preds = %15, %12
  %20 = phi i1 [ false, %12 ], [ %18, %15 ]
  %21 = xor i1 %20, true
  %22 = xor i1 %21, true
  %23 = zext i1 %22 to i32
  %24 = sext i32 %23 to i64
  %25 = call i64 @llvm.expect.i64(i64 %24, i64 0)
  %26 = icmp ne i64 %25, 0
  br i1 %26, label %27, label %56

27:                                               ; preds = %19
  %28 = call i32 @H5_init_library()
  %29 = icmp slt i32 %28, 0
  %30 = xor i1 %29, true
  %31 = xor i1 %30, true
  %32 = zext i1 %31 to i32
  %33 = sext i32 %32 to i64
  %34 = call i64 @llvm.expect.i64(i64 %33, i64 0)
  %35 = icmp ne i64 %34, 0
  br i1 %35, label %36, label %55

36:                                               ; preds = %27
  br label %37

37:                                               ; preds = %36
  br label %38

38:                                               ; preds = %37
  br label %39

39:                                               ; preds = %38
  %40 = load i64, ptr @H5E_FUNC_g, align 8, !tbaa !14
  %41 = load i64, ptr @H5E_CANTINIT_g, align 8, !tbaa !14
  %42 = call i32 (ptr, ptr, i32, i64, i64, ptr, ...) @H5E_printf_stack(ptr noundef @.str.1, ptr noundef @__func__.H5Pset_obj_track_times, i32 noundef 384, i64 noundef %40, i64 noundef %41, ptr noundef @.str.2)
  br label %43

43:                                               ; preds = %39
  br label %44

44:                                               ; preds = %43
  store i8 1, ptr %10, align 1, !tbaa !10
  %45 = load i8, ptr %10, align 1, !tbaa !10, !range !12, !noundef !13
  %46 = trunc i8 %45 to i1
  %47 = zext i1 %46 to i8
  store i8 %47, ptr %10, align 1, !tbaa !10
  br label %48

48:                                               ; preds = %44
  br label %49

49:                                               ; preds = %48
  br label %50

50:                                               ; preds = %49
  store i32 -1, ptr %7, align 4, !tbaa !8
  br label %211

51:                                               ; No predecessors!
  br label %52

52:                                               ; preds = %51
  br label %53

53:                                               ; preds = %52
  br label %54

54:                                               ; preds = %53
  br label %55

55:                                               ; preds = %54, %27
  br label %56

56:                                               ; preds = %55, %19
  %57 = load i8, ptr @H5P_init_g, align 1, !tbaa !10, !range !12, !noundef !13
  %58 = trunc i8 %57 to i1
  br i1 %58, label %63, label %59

59:                                               ; preds = %56
  %60 = load i8, ptr @H5_libterm_g, align 1, !tbaa !10, !range !12, !noundef !13
  %61 = trunc i8 %60 to i1
  %62 = xor i1 %61, true
  br label %63

63:                                               ; preds = %59, %56
  %64 = phi i1 [ false, %56 ], [ %62, %59 ]
  %65 = xor i1 %64, true
  %66 = xor i1 %65, true
  %67 = zext i1 %66 to i32
  %68 = sext i32 %67 to i64
  %69 = call i64 @llvm.expect.i64(i64 %68, i64 0)
  %70 = icmp ne i64 %69, 0
  br i1 %70, label %71, label %94

71:                                               ; preds = %63
  store i8 1, ptr @H5P_init_g, align 1, !tbaa !10
  %72 = call i32 @H5P__init_package()
  %73 = icmp slt i32 %72, 0
  br i1 %73, label %74, label %93

74:                                               ; preds = %71
  store i8 0, ptr @H5P_init_g, align 1, !tbaa !10
  br label %75

75:                                               ; preds = %74
  br label %76

76:                                               ; preds = %75
  br label %77

77:                                               ; preds = %76
  %78 = load i64, ptr @H5E_FUNC_g, align 8, !tbaa !14
  %79 = load i64, ptr @H5E_CANTINIT_g, align 8, !tbaa !14
  %80 = call i32 (ptr, ptr, i32, i64, i64, ptr, ...) @H5E_printf_stack(ptr noundef @.str.1, ptr noundef @__func__.H5Pset_obj_track_times, i32 noundef 384, i64 noundef %78, i64 noundef %79, ptr noundef @.str.3)
  br label %81

81:                                               ; preds = %77
  br label %82

82:                                               ; preds = %81
  store i8 1, ptr %10, align 1, !tbaa !10
  %83 = load i8, ptr %10, align 1, !tbaa !10, !range !12, !noundef !13
  %84 = trunc i8 %83 to i1
  %85 = zext i1 %84 to i8
  store i8 %85, ptr %10, align 1, !tbaa !10
  br label %86

86:                                               ; preds = %82
  br label %87

87:                                               ; preds = %86
  br label %88

88:                                               ; preds = %87
  store i32 -1, ptr %7, align 4, !tbaa !8
  br label %211

89:                                               ; No predecessors!
  br label %90

90:                                               ; preds = %89
  br label %91

91:                                               ; preds = %90
  br label %92

92:                                               ; preds = %91
  br label %93

93:                                               ; preds = %92, %71
  br label %94

94:                                               ; preds = %93, %63
  br label %95

95:                                               ; preds = %94
  br label %96

96:                                               ; preds = %95
  br label %97

97:                                               ; preds = %96
  %98 = call i32 @H5CX_push(ptr noundef %8)
  %99 = icmp slt i32 %98, 0
  %100 = xor i1 %99, true
  %101 = xor i1 %100, true
  %102 = zext i1 %101 to i32
  %103 = sext i32 %102 to i64
  %104 = call i64 @llvm.expect.i64(i64 %103, i64 0)
  %105 = icmp ne i64 %104, 0
  br i1 %105, label %106, label %125

106:                                              ; preds = %97
  br label %107

107:                                              ; preds = %106
  br label %108

108:                                              ; preds = %107
  br label %109

109:                                              ; preds = %108
  %110 = load i64, ptr @H5E_FUNC_g, align 8, !tbaa !14
  %111 = load i64, ptr @H5E_CANTSET_g, align 8, !tbaa !14
  %112 = call i32 (ptr, ptr, i32, i64, i64, ptr, ...) @H5E_printf_stack(ptr noundef @.str.1, ptr noundef @__func__.H5Pset_obj_track_times, i32 noundef 384, i64 noundef %110, i64 noundef %111, ptr noundef @.str.4)
  br label %113

113:                                              ; preds = %109
  br label %114

114:                                              ; preds = %113
  store i8 1, ptr %10, align 1, !tbaa !10
  %115 = load i8, ptr %10, align 1, !tbaa !10, !range !12, !noundef !13
  %116 = trunc i8 %115 to i1
  %117 = zext i1 %116 to i8
  store i8 %117, ptr %10, align 1, !tbaa !10
  br label %118

118:                                              ; preds = %114
  br label %119

119:                                              ; preds = %118
  br label %120

120:                                              ; preds = %119
  store i32 -1, ptr %7, align 4, !tbaa !8
  br label %211

121:                                              ; No predecessors!
  br label %122

122:                                              ; preds = %121
  br label %123

123:                                              ; preds = %122
  br label %124

124:                                              ; preds = %123
  br label %126

125:                                              ; preds = %97
  store i8 1, ptr %9, align 1, !tbaa !10
  br label %126

126:                                              ; preds = %125, %124
  br label %127

127:                                              ; preds = %126
  br label %128

128:                                              ; preds = %127
  %129 = call i32 @H5E_clear_stack()
  %130 = load i64, ptr %3, align 8, !tbaa !14
  %131 = load i64, ptr @H5P_CLS_OBJECT_CREATE_ID_g, align 8, !tbaa !14
  %132 = call ptr @H5P_object_verify(i64 noundef %130, i64 noundef %131, i1 noundef zeroext false)
  store ptr %132, ptr %5, align 8, !tbaa !16
  %133 = icmp eq ptr null, %132
  br i1 %133, label %134, label %153

134:                                              ; preds = %128
  br label %135

135:                                              ; preds = %134
  br label %136

136:                                              ; preds = %135
  br label %137

137:                                              ; preds = %136
  %138 = load i64, ptr @H5E_ID_g, align 8, !tbaa !14
  %139 = load i64, ptr @H5E_BADID_g, align 8, !tbaa !14
  %140 = call i32 (ptr, ptr, i32, i64, i64, ptr, ...) @H5E_printf_stack(ptr noundef @.str.1, ptr noundef @__func__.H5Pset_obj_track_times, i32 noundef 388, i64 noundef %138, i64 noundef %139, ptr noundef @.str.8)
  br label %141

141:                                              ; preds = %137
  br label %142

142:                                              ; preds = %141
  store i8 1, ptr %10, align 1, !tbaa !10
  %143 = load i8, ptr %10, align 1, !tbaa !10, !range !12, !noundef !13
  %144 = trunc i8 %143 to i1
  %145 = zext i1 %144 to i8
  store i8 %145, ptr %10, align 1, !tbaa !10
  br label %146

146:                                              ; preds = %142
  br label %147

147:                                              ; preds = %146
  br label %148

148:                                              ; preds = %147
  store i32 -1, ptr %7, align 4, !tbaa !8
  br label %211

149:                                              ; No predecessors!
  br label %150

150:                                              ; preds = %149
  br label %151

151:                                              ; preds = %150
  br label %152

152:                                              ; preds = %151
  br label %153

153:                                              ; preds = %152, %128
  %154 = load ptr, ptr %5, align 8, !tbaa !16
  %155 = call i32 @H5P_get(ptr noundef %154, ptr noundef @.str.16, ptr noundef %6)
  %156 = icmp slt i32 %155, 0
  br i1 %156, label %157, label %176

157:                                              ; preds = %153
  br label %158

158:                                              ; preds = %157
  br label %159

159:                                              ; preds = %158
  br label %160

160:                                              ; preds = %159
  %161 = load i64, ptr @H5E_PLIST_g, align 8, !tbaa !14
  %162 = load i64, ptr @H5E_CANTGET_g, align 8, !tbaa !14
  %163 = call i32 (ptr, ptr, i32, i64, i64, ptr, ...) @H5E_printf_stack(ptr noundef @.str.1, ptr noundef @__func__.H5Pset_obj_track_times, i32 noundef 392, i64 noundef %161, i64 noundef %162, ptr noundef @.str.17)
  br label %164

164:                                              ; preds = %160
  br label %165

165:                                              ; preds = %164
  store i8 1, ptr %10, align 1, !tbaa !10
  %166 = load i8, ptr %10, align 1, !tbaa !10, !range !12, !noundef !13
  %167 = trunc i8 %166 to i1
  %168 = zext i1 %167 to i8
  store i8 %168, ptr %10, align 1, !tbaa !10
  br label %169

169:                                              ; preds = %165
  br label %170

170:                                              ; preds = %169
  br label %171

171:                                              ; preds = %170
  store i32 -1, ptr %7, align 4, !tbaa !8
  br label %211

172:                                              ; No predecessors!
  br label %173

173:                                              ; preds = %172
  br label %174

174:                                              ; preds = %173
  br label %175

175:                                              ; preds = %174
  br label %176

176:                                              ; preds = %175, %153
  %177 = load i8, ptr %6, align 1, !tbaa !20
  %178 = zext i8 %177 to i32
  %179 = and i32 %178, 223
  %180 = trunc i32 %179 to i8
  store i8 %180, ptr %6, align 1, !tbaa !20
  %181 = load i8, ptr %6, align 1, !tbaa !20
  %182 = zext i8 %181 to i32
  %183 = load i8, ptr %4, align 1, !tbaa !10, !range !12, !noundef !13
  %184 = trunc i8 %183 to i1
  %185 = select i1 %184, i32 32, i32 0
  %186 = or i32 %182, %185
  %187 = trunc i32 %186 to i8
  store i8 %187, ptr %6, align 1, !tbaa !20
  %188 = load ptr, ptr %5, align 8, !tbaa !16
  %189 = call i32 @H5P_set(ptr noundef %188, ptr noundef @.str.16, ptr noundef %6)
  %190 = icmp slt i32 %189, 0
  br i1 %190, label %191, label %210

191:                                              ; preds = %176
  br label %192

192:                                              ; preds = %191
  br label %193

193:                                              ; preds = %192
  br label %194

194:                                              ; preds = %193
  %195 = load i64, ptr @H5E_PLIST_g, align 8, !tbaa !14
  %196 = load i64, ptr @H5E_CANTSET_g, align 8, !tbaa !14
  %197 = call i32 (ptr, ptr, i32, i64, i64, ptr, ...) @H5E_printf_stack(ptr noundef @.str.1, ptr noundef @__func__.H5Pset_obj_track_times, i32 noundef 402, i64 noundef %195, i64 noundef %196, ptr noundef @.str.18)
  br label %198

198:                                              ; preds = %194
  br label %199

199:                                              ; preds = %198
  store i8 1, ptr %10, align 1, !tbaa !10
  %200 = load i8, ptr %10, align 1, !tbaa !10, !range !12, !noundef !13
  %201 = trunc i8 %200 to i1
  %202 = zext i1 %201 to i8
  store i8 %202, ptr %10, align 1, !tbaa !10
  br label %203

203:                                              ; preds = %199
  br label %204

204:                                              ; preds = %203
  br label %205

205:                                              ; preds = %204
  store i32 -1, ptr %7, align 4, !tbaa !8
  br label %211

206:                                              ; No predecessors!
  br label %207

207:                                              ; preds = %206
  br label %208

208:                                              ; preds = %207
  br label %209

209:                                              ; preds = %208
  br label %210

210:                                              ; preds = %209, %176
  br label %211

211:                                              ; preds = %210, %205, %171, %148, %120, %88, %50
  %212 = load i8, ptr %9, align 1, !tbaa !10, !range !12, !noundef !13
  %213 = trunc i8 %212 to i1
  %214 = xor i1 %213, true
  %215 = xor i1 %214, true
  %216 = zext i1 %215 to i32
  %217 = sext i32 %216 to i64
  %218 = call i64 @llvm.expect.i64(i64 %217, i64 1)
  %219 = icmp ne i64 %218, 0
  br i1 %219, label %220, label %222

220:                                              ; preds = %211
  %221 = call i32 @H5CX_pop(i1 noundef zeroext true)
  store i8 0, ptr %9, align 1, !tbaa !10
  br label %222

222:                                              ; preds = %220, %211
  %223 = load i8, ptr %10, align 1, !tbaa !10, !range !12, !noundef !13
  %224 = trunc i8 %223 to i1
  %225 = xor i1 %224, true
  %226 = xor i1 %225, true
  %227 = zext i1 %226 to i32
  %228 = sext i32 %227 to i64
  %229 = call i64 @llvm.expect.i64(i64 %228, i64 0)
  %230 = icmp ne i64 %229, 0
  br i1 %230, label %231, label %233

231:                                              ; preds = %222
  %232 = call i32 @H5E_dump_api_stack()
  br label %233

233:                                              ; preds = %231, %222
  %234 = load i32, ptr %7, align 4, !tbaa !8
  call void @llvm.lifetime.end.p0(i64 1, ptr %10) #10
  call void @llvm.lifetime.end.p0(i64 1, ptr %9) #10
  call void @llvm.lifetime.end.p0(i64 480, ptr %8) #10
  call void @llvm.lifetime.end.p0(i64 4, ptr %7) #10
  call void @llvm.lifetime.end.p0(i64 1, ptr %6) #10
  call void @llvm.lifetime.end.p0(i64 8, ptr %5) #10
  ret i32 %234
}